; Function Attrs: mustprogress nofree norecurse nosync nounwind willreturn uwtable
define void @_ZN5arrow2io19BufferedInputStream6DetachEv(ptr noalias nocapture writeonly sret(%"class.std::shared_ptr.22") align 8 %agg.result, ptr nocapture noundef nonnull readonly align 8 dereferenceable(32) %this) local_unnamed_addr #11 align 2 {
entry:
  %impl_ = getelementptr inbounds i8, ptr %this, i64 24
  %0 = load ptr, ptr %impl_, align 8
  tail call void @llvm.experimental.noalias.scope.decl(metadata !138)
  %is_open_.i = getelementptr inbounds i8, ptr %0, i64 8
  store i8 0, ptr %is_open_.i, align 8, !noalias !138
  %raw_.i = getelementptr inbounds i8, ptr %0, i64 104
  %_M_refcount4.i.i.i = getelementptr inbounds i8, ptr %0, i64 112
  %1 = load <2 x ptr>, ptr %raw_.i, align 8, !noalias !138
  store ptr null, ptr %_M_refcount4.i.i.i, align 8, !noalias !138
  store <2 x ptr> %1, ptr %agg.result, align 8, !alias.scope !138
  store ptr null, ptr %raw_.i, align 8, !noalias !138
  ret void
}